target datalayout = "e-m:e-p270:32:32-p271:32:32-p272:64:64-i64:64-i128:128-f80:128-n8:16:32:64-S128"
target triple = "x86_64-pc-linux-gnu"

%struct.obdii_packet_info = type { ptr, i32, i8, i8, i8, i32, i8, i8, i8, i8, i8 }
%struct._packet_info = type { ptr, ptr, i32, i32, %struct.nstime_t, %struct.nstime_t, %struct.nstime_t, i8, ptr, ptr, ptr, ptr, %struct._address, %struct._address, %struct._address, %struct._address, %struct._address, %struct._address, i32, ptr, i8, [3 x i8], %struct.anon, i32, i32, i32, i32, ptr, i8, ptr, ptr, i16, i16, i32, i32, i16, i32, i32, ptr, ptr, ptr, i8, i8, i16, i16, i16, i32, i16, i16, ptr, ptr, ptr, ptr, ptr, i32, i32 }
%struct.nstime_t = type { i64, i32 }
%struct._address = type { i32, i32, ptr, ptr }
%struct.anon = type { i8, [3 x i8] }

@.str.320 = private unnamed_addr constant [9 x i8] c": %u kPa\00", align 1

; Function Attrs: null_pointer_is_valid sspstrong uwtable
define internal zeroext i1 @dissect_obdii_common_fuel_rail_pressure(ptr noundef %0, ptr noundef %1, ptr noundef %2, i32 noundef %3) #0 {
  %5 = alloca i1, align 1
  %6 = alloca ptr, align 8
  %7 = alloca ptr, align 8
  %8 = alloca ptr, align 8
  %9 = alloca i32, align 4
  %10 = alloca i32, align 4
  store ptr %0, ptr %6, align 8
  store ptr %1, ptr %7, align 8
  store ptr %2, ptr %8, align 8
  store i32 %3, ptr %9, align 4
  %11 = load ptr, ptr %7, align 8
  %12 = getelementptr inbounds nuw %struct.obdii_packet_info, ptr %11, i32 0, i32 4
  %13 = load i8, ptr %12, align 2
  %14 = zext i8 %13 to i32
  %15 = icmp eq i32 %14, 2
  br i1 %15, label %16, label %46

16:                                               ; preds = %4
  call void @llvm.lifetime.start.p0(i64 4, ptr %10) #8
  %17 = load ptr, ptr %7, align 8
  %18 = getelementptr inbounds nuw %struct.obdii_packet_info, ptr %17, i32 0, i32 6
  %19 = load i8, ptr %18, align 4
  %20 = zext i8 %19 to i32
  %21 = mul i32 256, %20
  %22 = load ptr, ptr %7, align 8
  %23 = getelementptr inbounds nuw %struct.obdii_packet_info, ptr %22, i32 0, i32 7
  %24 = load i8, ptr %23, align 1
  %25 = zext i8 %24 to i32
  %26 = add i32 %21, %25
  %27 = mul i32 10, %26
  store i32 %27, ptr %10, align 4
  %28 = load ptr, ptr %7, align 8
  %29 = getelementptr inbounds nuw %struct.obdii_packet_info, ptr %28, i32 0, i32 0
  %30 = load ptr, ptr %29, align 8
  %31 = getelementptr inbounds nuw %struct._packet_info, ptr %30, i32 0, i32 1
  %32 = load ptr, ptr %31, align 8
  %33 = load i32, ptr %10, align 4
  call void (ptr, i32, ptr, ...) @col_append_fstr(ptr noundef %32, i32 noundef 25, ptr noundef @.str.320, i32 noundef %33)
  %34 = load ptr, ptr %8, align 8
  %35 = load i32, ptr %9, align 4
  %36 = load ptr, ptr %6, align 8
  %37 = load ptr, ptr %7, align 8
  %38 = getelementptr inbounds nuw %struct.obdii_packet_info, ptr %37, i32 0, i32 5
  %39 = load i32, ptr %38, align 8
  %40 = load ptr, ptr %7, align 8
  %41 = getelementptr inbounds nuw %struct.obdii_packet_info, ptr %40, i32 0, i32 4
  %42 = load i8, ptr %41, align 2
  %43 = zext i8 %42 to i32
  %44 = load i32, ptr %10, align 4
  %45 = call ptr @proto_tree_add_uint(ptr noundef %34, i32 noundef %35, ptr noundef %36, i32 noundef %39, i32 noundef %43, i32 noundef %44)
  store i1 true, ptr %5, align 1
  call void @llvm.lifetime.end.p0(i64 4, ptr %10) #8
  br label %47

46:                                               ; preds = %4
  store i1 false, ptr %5, align 1
  br label %47

47:                                               ; preds = %46, %16
  %48 = load i1, ptr %5, align 1
  ret i1 %48
}