; Function Attrs: null_pointer_is_valid sspstrong uwtable
define internal fastcc noundef zeroext i1 @dissect_obdii_common_fuel_rail_pressure(ptr noundef %0, ptr noundef readonly captures(none) %1, ptr noundef %2, i32 noundef %3) unnamed_addr #0 {
  %5 = getelementptr inbounds nuw i8, ptr %1, i64 14
  %6 = load i8, ptr %5, align 2
  %7 = icmp eq i8 %6, 2
  br i1 %7, label %8, label %26

8:                                                ; preds = %4
  %9 = getelementptr inbounds nuw i8, ptr %1, i64 20
  %10 = load i8, ptr %9, align 4
  %11 = zext i8 %10 to i32
  %12 = shl nuw nsw i32 %11, 8
  %13 = getelementptr inbounds nuw i8, ptr %1, i64 21
  %14 = load i8, ptr %13, align 1
  %15 = zext i8 %14 to i32
  %16 = or disjoint i32 %12, %15
  %17 = mul nuw nsw i32 %16, 10
  %18 = load ptr, ptr %1, align 8
  %19 = getelementptr inbounds nuw i8, ptr %18, i64 8
  %20 = load ptr, ptr %19, align 8
  tail call void (ptr, i32, ptr, ...) @col_append_fstr(ptr noundef %20, i32 noundef 25, ptr noundef nonnull @.str.320, i32 noundef %17)
  %21 = getelementptr inbounds nuw i8, ptr %1, i64 16
  %22 = load i32, ptr %21, align 8
  %23 = load i8, ptr %5, align 2
  %24 = zext i8 %23 to i32
  %25 = tail call ptr @proto_tree_add_uint(ptr noundef %2, i32 noundef %3, ptr noundef %0, i32 noundef %22, i32 noundef %24, i32 noundef %17)
  br label %26

26:                                               ; preds = %4, %8
  ret i1 %7
}